; ModuleID = '29/55.c'
source_filename = "29/55.c"
target datalayout = "e-m:e-p270:32:32-p271:32:32-p272:64:64-i64:64-f80:128-n8:16:32:64-S128"
target triple = "x86_64-pc-linux-gnu"

@.str = private unnamed_addr constant [3 x i8] c"%d\00", align 1
@.str.1 = private unnamed_addr constant [7 x i8] c"%.3lf\0A\00", align 1

; Function Attrs: noinline nounwind uwtable
define dso_local i32 @main() #0 {
  %1 = alloca i32, align 4
  %2 = alloca i32, align 4
  %3 = alloca i32, align 4
  %4 = alloca i32, align 4
  %5 = alloca i32, align 4
  %6 = alloca [100 x double], align 16
  %7 = alloca [100 x double], align 16
  %8 = alloca [100 x double], align 16
  %9 = alloca double, align 8
  store i32 0, i32* %1, align 4
  store double 0.000000e+00, double* %9, align 8
  %10 = call i32 (i8*, ...) @__isoc99_scanf(i8* getelementptr inbounds ([3 x i8], [3 x i8]* @.str, i64 0, i64 0), i32* %2)
  %11 = getelementptr inbounds [100 x double], [100 x double]* %6, i64 0, i64 0
  store double 2.000000e+00, double* %11, align 16
  %12 = getelementptr inbounds [100 x double], [100 x double]* %6, i64 0, i64 1
  store double 1.500000e+00, double* %12, align 8
  %13 = getelementptr inbounds [100 x double], [100 x double]* %7, i64 0, i64 0
  store double 2.000000e+00, double* %13, align 16
  %14 = getelementptr inbounds [100 x double], [100 x double]* %7, i64 0, i64 1
  store double 3.000000e+00, double* %14, align 8
  %15 = getelementptr inbounds [100 x double], [100 x double]* %8, i64 0, i64 1
  store double 2.000000e+00, double* %15, align 8
  %16 = getelementptr inbounds [100 x double], [100 x double]* %8, i64 0, i64 0
  store double 1.000000e+00, double* %16, align 16
  store i32 2, i32* %4, align 4
  br label %17

17:                                               ; preds = %61, %0
  %18 = load i32, i32* %4, align 4
  %19 = icmp slt i32 %18, 100
  br i1 %19, label %20, label %64

20:                                               ; preds = %17
  %21 = load i32, i32* %4, align 4
  %22 = sub nsw i32 %21, 1
  %23 = sext i32 %22 to i64
  %24 = getelementptr inbounds [100 x double], [100 x double]* %7, i64 0, i64 %23
  %25 = load double, double* %24, align 8
  %26 = load i32, i32* %4, align 4
  %27 = sub nsw i32 %26, 2
  %28 = sext i32 %27 to i64
  %29 = getelementptr inbounds [100 x double], [100 x double]* %7, i64 0, i64 %28
  %30 = load double, double* %29, align 8
  %31 = fadd double %25, %30
  %32 = load i32, i32* %4, align 4
  %33 = sext i32 %32 to i64
  %34 = getelementptr inbounds [100 x double], [100 x double]* %7, i64 0, i64 %33
  store double %31, double* %34, align 8
  %35 = load i32, i32* %4, align 4
  %36 = sub nsw i32 %35, 1
  %37 = sext i32 %36 to i64
  %38 = getelementptr inbounds [100 x double], [100 x double]* %8, i64 0, i64 %37
  %39 = load double, double* %38, align 8
  %40 = load i32, i32* %4, align 4
  %41 = sub nsw i32 %40, 2
  %42 = sext i32 %41 to i64
  %43 = getelementptr inbounds [100 x double], [100 x double]* %8, i64 0, i64 %42
  %44 = load double, double* %43, align 8
  %45 = fadd double %39, %44
  %46 = load i32, i32* %4, align 4
  %47 = sext i32 %46 to i64
  %48 = getelementptr inbounds [100 x double], [100 x double]* %8, i64 0, i64 %47
  store double %45, double* %48, align 8
  %49 = load i32, i32* %4, align 4
  %50 = sext i32 %49 to i64
  %51 = getelementptr inbounds [100 x double], [100 x double]* %7, i64 0, i64 %50
  %52 = load double, double* %51, align 8
  %53 = load i32, i32* %4, align 4
  %54 = sext i32 %53 to i64
  %55 = getelementptr inbounds [100 x double], [100 x double]* %8, i64 0, i64 %54
  %56 = load double, double* %55, align 8
  %57 = fdiv double %52, %56
  %58 = load i32, i32* %4, align 4
  %59 = sext i32 %58 to i64
  %60 = getelementptr inbounds [100 x double], [100 x double]* %6, i64 0, i64 %59
  store double %57, double* %60, align 8
  br label %61

61:                                               ; preds = %20
  %62 = load i32, i32* %4, align 4
  %63 = add nsw i32 %62, 1
  store i32 %63, i32* %4, align 4
  br label %17

64:                                               ; preds = %17
  store i32 0, i32* %4, align 4
  br label %65

65:                                               ; preds = %88, %64
  %66 = load i32, i32* %4, align 4
  %67 = load i32, i32* %2, align 4
  %68 = icmp slt i32 %66, %67
  br i1 %68, label %69, label %91

69:                                               ; preds = %65
  %70 = call i32 (i8*, ...) @__isoc99_scanf(i8* getelementptr inbounds ([3 x i8], [3 x i8]* @.str, i64 0, i64 0), i32* %3)
  store double 0.000000e+00, double* %9, align 8
  store i32 0, i32* %5, align 4
  br label %71

71:                                               ; preds = %82, %69
  %72 = load i32, i32* %5, align 4
  %73 = load i32, i32* %3, align 4
  %74 = icmp slt i32 %72, %73
  br i1 %74, label %75, label %85

75:                                               ; preds = %71
  %76 = load double, double* %9, align 8
  %77 = load i32, i32* %5, align 4
  %78 = sext i32 %77 to i64
  %79 = getelementptr inbounds [100 x double], [100 x double]* %6, i64 0, i64 %78
  %80 = load double, double* %79, align 8
  %81 = fadd double %76, %80
  store double %81, double* %9, align 8
  br label %82

82:                                               ; preds = %75
  %83 = load i32, i32* %5, align 4
  %84 = add nsw i32 %83, 1
  store i32 %84, i32* %5, align 4
  br label %71

85:                                               ; preds = %71
  %86 = load double, double* %9, align 8
  %87 = call i32 (i8*, ...) @printf(i8* getelementptr inbounds ([7 x i8], [7 x i8]* @.str.1, i64 0, i64 0), double %86)
  br label %88

88:                                               ; preds = %85
  %89 = load i32, i32* %4, align 4
  %90 = add nsw i32 %89, 1
  store i32 %90, i32* %4, align 4
  br label %65

91:                                               ; preds = %65
  ret i32 0
}

declare dso_local i32 @__isoc99_scanf(i8*, ...) #1

declare dso_local i32 @printf(i8*, ...) #1


!llvm.module.flags = !{!0}
!llvm.ident = !{!1}

!0 = !{i32 1, !"wchar_size", i32 4}
!1 = !{!"clang version 10.0.0-4ubuntu1 "}
